target datalayout = "e-m:e-p270:32:32-p271:32:32-p272:64:64-i64:64-i128:128-f80:128-n8:16:32:64-S128"
target triple = "x86_64-pc-linux-gnu"

%struct._zval_struct = type { %union._zend_value, %union.anon, %union.anon.3 }
%union._zend_value = type { i64 }
%union.anon = type { i32 }
%union.anon.3 = type { i32 }
%struct._zend_array = type { %struct._zend_refcounted_h, %union.anon.5, i32, %union.anon.7, i32, i32, i32, i32, i64, ptr }
%struct._zend_refcounted_h = type { i32, %union.anon.4 }
%union.anon.4 = type { i32 }
%union.anon.5 = type { i32 }
%union.anon.7 = type { ptr }

; Function Attrs: nounwind uwtable
define internal i32 @ct_eval_bool_cast(ptr noundef %0, ptr noundef %1) #0 {
  %3 = alloca ptr, align 8
  %4 = alloca ptr, align 8
  %5 = alloca i32, align 4
  %6 = alloca ptr, align 8
  %7 = alloca ptr, align 8
  store ptr %0, ptr %6, align 8
  store ptr %1, ptr %7, align 8
  %8 = load ptr, ptr %7, align 8
  store ptr %8, ptr %4, align 8
  %9 = load ptr, ptr %4, align 8
  %10 = getelementptr inbounds %struct._zval_struct, ptr %9, i32 0, i32 1
  %11 = load i8, ptr %10, align 8
  %12 = zext i8 %11 to i32
  %13 = icmp eq i32 %12, 253
  br i1 %13, label %14, label %28

14:                                               ; preds = %2
  %15 = load ptr, ptr %7, align 8
  %16 = getelementptr inbounds %struct._zval_struct, ptr %15, i32 0, i32 0
  %17 = load ptr, ptr %16, align 8
  store ptr %17, ptr %3, align 8
  %18 = load ptr, ptr %3, align 8
  %19 = getelementptr inbounds %struct._zend_array, ptr %18, i32 0, i32 5
  %20 = load i32, ptr %19, align 4
  %21 = icmp eq i32 %20, 0
  br i1 %21, label %22, label %23

22:                                               ; preds = %14
  store i32 -1, ptr %5, align 4
  br label %37

23:                                               ; preds = %14
  br label %24

24:                                               ; preds = %23
  %25 = load ptr, ptr %6, align 8
  %26 = getelementptr inbounds %struct._zval_struct, ptr %25, i32 0, i32 1
  store i32 3, ptr %26, align 8
  br label %27

27:                                               ; preds = %24
  store i32 0, ptr %5, align 4
  br label %37

28:                                               ; preds = %2
  br label %29

29:                                               ; preds = %28
  %30 = load ptr, ptr %7, align 8
  %31 = call i32 @zend_is_true(ptr noundef %30)
  %32 = icmp ne i32 %31, 0
  %33 = select i1 %32, i32 3, i32 2
  %34 = load ptr, ptr %6, align 8
  %35 = getelementptr inbounds %struct._zval_struct, ptr %34, i32 0, i32 1
  store i32 %33, ptr %35, align 8
  br label %36

36:                                               ; preds = %29
  store i32 0, ptr %5, align 4
  br label %37

37:                                               ; preds = %36, %27, %22
  %38 = load i32, ptr %5, align 4
  ret i32 %38
}

; Function Attrs: nounwind uwtable
define internal i32 @ct_eval_isset_isempty(ptr noundef %0, i32 noundef %1, ptr noundef %2) #0 {
  %4 = alloca ptr, align 8
  %5 = alloca ptr, align 8
  %6 = alloca i32, align 4
  %7 = alloca ptr, align 8
  %8 = alloca i32, align 4
  %9 = alloca ptr, align 8
  %10 = alloca %struct._zval_struct, align 8
  store ptr %0, ptr %7, align 8
  store i32 %1, ptr %8, align 4
  store ptr %2, ptr %9, align 8
  %11 = load i32, ptr %8, align 4
  %12 = and i32 %11, 1
  %13 = icmp ne i32 %12, 0
  br i1 %13, label %31, label %14

14:                                               ; preds = %3
  br label %15

15:                                               ; preds = %14
  %16 = load ptr, ptr %9, align 8
  %17 = icmp ne ptr %16, null
  br i1 %17, label %18, label %25

18:                                               ; preds = %15
  %19 = load ptr, ptr %9, align 8
  store ptr %19, ptr %4, align 8
  %20 = load ptr, ptr %4, align 8
  %21 = getelementptr inbounds %struct._zval_struct, ptr %20, i32 0, i32 1
  %22 = load i8, ptr %21, align 8
  %23 = zext i8 %22 to i32
  %24 = icmp ne i32 %23, 1
  br label %25

25:                                               ; preds = %18, %15
  %26 = phi i1 [ false, %15 ], [ %24, %18 ]
  %27 = select i1 %26, i32 3, i32 2
  %28 = load ptr, ptr %7, align 8
  %29 = getelementptr inbounds %struct._zval_struct, ptr %28, i32 0, i32 1
  store i32 %27, ptr %29, align 8
  br label %30

30:                                               ; preds = %25
  store i32 0, ptr %6, align 4
  br label %55

31:                                               ; preds = %3
  %32 = load ptr, ptr %9, align 8
  %33 = icmp ne ptr %32, null
  br i1 %33, label %39, label %34

34:                                               ; preds = %31
  br label %35

35:                                               ; preds = %34
  %36 = load ptr, ptr %7, align 8
  %37 = getelementptr inbounds %struct._zval_struct, ptr %36, i32 0, i32 1
  store i32 3, ptr %37, align 8
  br label %38

38:                                               ; preds = %35
  store i32 0, ptr %6, align 4
  br label %55

39:                                               ; preds = %31
  %40 = load ptr, ptr %9, align 8
  %41 = call i32 @ct_eval_bool_cast(ptr noundef %10, ptr noundef %40)
  %42 = icmp eq i32 %41, 0
  br i1 %42, label %43, label %54

43:                                               ; preds = %39
  br label %44

44:                                               ; preds = %43
  store ptr %10, ptr %5, align 8
  %45 = load ptr, ptr %5, align 8
  %46 = getelementptr inbounds %struct._zval_struct, ptr %45, i32 0, i32 1
  %47 = load i8, ptr %46, align 8
  %48 = zext i8 %47 to i32
  %49 = icmp eq i32 %48, 2
  %50 = select i1 %49, i32 3, i32 2
  %51 = load ptr, ptr %7, align 8
  %52 = getelementptr inbounds %struct._zval_struct, ptr %51, i32 0, i32 1
  store i32 %50, ptr %52, align 8
  br label %53

53:                                               ; preds = %44
  store i32 0, ptr %6, align 4
  br label %55

54:                                               ; preds = %39
  store i32 -1, ptr %6, align 4
  br label %55

55:                                               ; preds = %54, %53, %38, %30
  %56 = load i32, ptr %6, align 4
  ret i32 %56
}

; Function Attrs: nounwind uwtable
define internal i32 @ct_eval_isset_dim(ptr noundef %0, i32 noundef %1, ptr noundef %2, ptr noundef %3) #0 {
  %5 = alloca ptr, align 8
  %6 = alloca ptr, align 8
  %7 = alloca ptr, align 8
  %8 = alloca ptr, align 8
  %9 = alloca ptr, align 8
  %10 = alloca i32, align 4
  %11 = alloca ptr, align 8
  %12 = alloca i32, align 4
  %13 = alloca ptr, align 8
  %14 = alloca ptr, align 8
  %15 = alloca ptr, align 8
  store ptr %0, ptr %11, align 8
  store i32 %1, ptr %12, align 4
  store ptr %2, ptr %13, align 8
  store ptr %3, ptr %14, align 8
  %16 = load ptr, ptr %13, align 8
  store ptr %16, ptr %5, align 8
  %17 = load ptr, ptr %5, align 8
  %18 = getelementptr inbounds %struct._zval_struct, ptr %17, i32 0, i32 1
  %19 = load i8, ptr %18, align 8
  %20 = zext i8 %19 to i32
  %21 = icmp eq i32 %20, 7
  br i1 %21, label %29, label %22

22:                                               ; preds = %4
  %23 = load ptr, ptr %13, align 8
  store ptr %23, ptr %6, align 8
  %24 = load ptr, ptr %6, align 8
  %25 = getelementptr inbounds %struct._zval_struct, ptr %24, i32 0, i32 1
  %26 = load i8, ptr %25, align 8
  %27 = zext i8 %26 to i32
  %28 = icmp eq i32 %27, 253
  br i1 %28, label %29, label %58

29:                                               ; preds = %22, %4
  %30 = load ptr, ptr %13, align 8
  %31 = load ptr, ptr %14, align 8
  %32 = call i32 @fetch_array_elem(ptr noundef %15, ptr noundef %30, ptr noundef %31)
  %33 = icmp eq i32 %32, -1
  br i1 %33, label %34, label %35

34:                                               ; preds = %29
  store i32 -1, ptr %10, align 4
  br label %75

35:                                               ; preds = %29
  %36 = load ptr, ptr %13, align 8
  store ptr %36, ptr %7, align 8
  %37 = load ptr, ptr %7, align 8
  %38 = getelementptr inbounds %struct._zval_struct, ptr %37, i32 0, i32 1
  %39 = load i8, ptr %38, align 8
  %40 = zext i8 %39 to i32
  %41 = icmp eq i32 %40, 253
  br i1 %41, label %42, label %53

42:                                               ; preds = %35
  %43 = load ptr, ptr %15, align 8
  %44 = icmp ne ptr %43, null
  br i1 %44, label %45, label %52

45:                                               ; preds = %42
  %46 = load ptr, ptr %15, align 8
  store ptr %46, ptr %8, align 8
  %47 = load ptr, ptr %8, align 8
  %48 = getelementptr inbounds %struct._zval_struct, ptr %47, i32 0, i32 1
  %49 = load i8, ptr %48, align 8
  %50 = zext i8 %49 to i32
  %51 = icmp eq i32 %50, 254
  br i1 %51, label %52, label %53

52:                                               ; preds = %45, %42
  store i32 -1, ptr %10, align 4
  br label %75

53:                                               ; preds = %45, %35
  %54 = load ptr, ptr %11, align 8
  %55 = load i32, ptr %12, align 4
  %56 = load ptr, ptr %15, align 8
  %57 = call i32 @ct_eval_isset_isempty(ptr noundef %54, i32 noundef %55, ptr noundef %56)
  store i32 %57, ptr %10, align 4
  br label %75

58:                                               ; preds = %22
  %59 = load ptr, ptr %13, align 8
  store ptr %59, ptr %9, align 8
  %60 = load ptr, ptr %9, align 8
  %61 = getelementptr inbounds %struct._zval_struct, ptr %60, i32 0, i32 1
  %62 = load i8, ptr %61, align 8
  %63 = zext i8 %62 to i32
  %64 = icmp eq i32 %63, 6
  br i1 %64, label %65, label %66

65:                                               ; preds = %58
  store i32 -1, ptr %10, align 4
  br label %75

66:                                               ; preds = %58
  br label %67

67:                                               ; preds = %66
  %68 = load i32, ptr %12, align 4
  %69 = and i32 %68, 1
  %70 = icmp ne i32 %69, 0
  %71 = select i1 %70, i32 3, i32 2
  %72 = load ptr, ptr %11, align 8
  %73 = getelementptr inbounds %struct._zval_struct, ptr %72, i32 0, i32 1
  store i32 %71, ptr %73, align 8
  br label %74

74:                                               ; preds = %67
  store i32 0, ptr %10, align 4
  br label %75

75:                                               ; preds = %74, %65, %53, %52, %34
  %76 = load i32, ptr %10, align 4
  ret i32 %76
}