; Function Attrs: nounwind uwtable
define internal fastcc noundef i32 @ct_eval_isset_dim(ptr nocapture noundef writeonly %0, i32 noundef %1, ptr nocapture noundef readonly %2, ptr nocapture noundef readonly %3) unnamed_addr #0 {
  %5 = alloca ptr, align 8
  %6 = getelementptr inbounds i8, ptr %2, i64 8
  %7 = load i8, ptr %6, align 8
  switch i8 %7, label %39 [
    i8 7, label %8
    i8 -3, label %8
    i8 6, label %ct_eval_isset_isempty.exit
  ]

8:                                                ; preds = %4, %4
  %9 = call fastcc i32 @fetch_array_elem(ptr noundef nonnull %5, ptr noundef nonnull %2, ptr noundef %3), !range !5
  %10 = icmp eq i32 %9, -1
  br i1 %10, label %ct_eval_isset_isempty.exit, label %11

11:                                               ; preds = %8
  %12 = load i8, ptr %6, align 8
  %13 = icmp eq i8 %12, -3
  %.pre = load ptr, ptr %5, align 8
  br i1 %13, label %14, label %19

14:                                               ; preds = %11
  %.not = icmp eq ptr %.pre, null
  br i1 %.not, label %ct_eval_isset_isempty.exit, label %15

15:                                               ; preds = %14
  %16 = getelementptr inbounds i8, ptr %.pre, i64 8
  %17 = load i8, ptr %16, align 8
  %18 = icmp eq i8 %17, -2
  br i1 %18, label %ct_eval_isset_isempty.exit, label %19

19:                                               ; preds = %15, %11
  %20 = and i32 %1, 1
  %.not.i = icmp eq i32 %20, 0
  %.not11.i = icmp eq ptr %.pre, null
  br i1 %.not.i, label %21, label %26

21:                                               ; preds = %19
  br i1 %.not11.i, label %ct_eval_isset_isempty.exit.sink.split, label %22

22:                                               ; preds = %21
  %23 = getelementptr inbounds i8, ptr %.pre, i64 8
  %24 = load i8, ptr %23, align 8
  %.not12.i = icmp eq i8 %24, 1
  %25 = select i1 %.not12.i, i32 2, i32 3
  br label %ct_eval_isset_isempty.exit.sink.split

26:                                               ; preds = %19
  br i1 %.not11.i, label %ct_eval_isset_isempty.exit.sink.split, label %27

27:                                               ; preds = %26
  %28 = getelementptr inbounds i8, ptr %.pre, i64 8
  %29 = load i8, ptr %28, align 8
  %30 = icmp eq i8 %29, -3
  br i1 %30, label %31, label %36

31:                                               ; preds = %27
  %32 = load ptr, ptr %.pre, align 8
  %33 = getelementptr inbounds i8, ptr %32, i64 28
  %34 = load i32, ptr %33, align 4
  %35 = icmp eq i32 %34, 0
  br i1 %35, label %ct_eval_isset_isempty.exit, label %ct_eval_isset_isempty.exit.sink.split

36:                                               ; preds = %27
  %37 = tail call i32 @zend_is_true(ptr noundef nonnull %.pre) #13
  %.not.i.i = icmp eq i32 %37, 0
  %38 = select i1 %.not.i.i, i32 3, i32 2
  br label %ct_eval_isset_isempty.exit.sink.split

39:                                               ; preds = %4
  %40 = and i32 %1, 1
  %41 = or disjoint i32 %40, 2
  br label %ct_eval_isset_isempty.exit.sink.split

ct_eval_isset_isempty.exit.sink.split:            ; preds = %21, %22, %26, %31, %36, %39
  %.sink.i.sink.i.sink = phi i32 [ %41, %39 ], [ 2, %21 ], [ %25, %22 ], [ 3, %26 ], [ %38, %36 ], [ 2, %31 ]
  %42 = getelementptr inbounds i8, ptr %0, i64 8
  store i32 %.sink.i.sink.i.sink, ptr %42, align 8
  br label %ct_eval_isset_isempty.exit

ct_eval_isset_isempty.exit:                       ; preds = %ct_eval_isset_isempty.exit.sink.split, %31, %4, %14, %15, %8
  %.0 = phi i32 [ -1, %8 ], [ -1, %15 ], [ -1, %14 ], [ -1, %4 ], [ -1, %31 ], [ 0, %ct_eval_isset_isempty.exit.sink.split ]
  ret i32 %.0
}